; Function Attrs: nofree norecurse nosync nounwind memory(read, argmem: readwrite, inaccessiblemem: none) uwtable
define internal void @filter16_prewitt(ptr noundef writeonly captures(none) %0, i32 noundef %1, float noundef %2, float noundef %3, ptr readnone captures(none) %4, ptr noundef readonly captures(none) %5, i32 noundef %6, i32 %7, i32 %8, i32 %9, i32 %10) #6 {
  %12 = icmp sgt i32 %1, 0
  br i1 %12, label %.lr.ph, label %._crit_edge

.lr.ph:                                           ; preds = %11
  %13 = load ptr, ptr %5, align 8, !tbaa !46
  %14 = getelementptr inbounds nuw i8, ptr %5, i64 8
  %15 = load ptr, ptr %14, align 8, !tbaa !46
  %16 = getelementptr inbounds nuw i8, ptr %5, i64 16
  %17 = load ptr, ptr %16, align 8, !tbaa !46
  %18 = getelementptr inbounds nuw i8, ptr %5, i64 48
  %19 = load ptr, ptr %18, align 8, !tbaa !46
  %20 = getelementptr inbounds nuw i8, ptr %5, i64 56
  %21 = load ptr, ptr %20, align 8, !tbaa !46
  %22 = getelementptr inbounds nuw i8, ptr %5, i64 64
  %23 = load ptr, ptr %22, align 8, !tbaa !46
  %24 = getelementptr inbounds nuw i8, ptr %5, i64 24
  %25 = load ptr, ptr %24, align 8, !tbaa !46
  %26 = getelementptr inbounds nuw i8, ptr %5, i64 40
  %27 = load ptr, ptr %26, align 8, !tbaa !46
  %wide.trip.count = zext nneg i32 %1 to i64
  br label %28

28:                                               ; preds = %.lr.ph, %28
  %indvars.iv = phi i64 [ 0, %.lr.ph ], [ %indvars.iv.next, %28 ]
  %29 = shl nuw nsw i64 %indvars.iv, 1
  %30 = getelementptr inbounds nuw i8, ptr %13, i64 %29
  %31 = load i16, ptr %30, align 2, !tbaa !82
  %32 = zext i16 %31 to i32
  %33 = getelementptr inbounds nuw i8, ptr %15, i64 %29
  %34 = load i16, ptr %33, align 2, !tbaa !82
  %35 = zext i16 %34 to i32
  %36 = getelementptr inbounds nuw i8, ptr %17, i64 %29
  %37 = load i16, ptr %36, align 2, !tbaa !82
  %38 = zext i16 %37 to i32
  %39 = getelementptr inbounds nuw i8, ptr %19, i64 %29
  %40 = load i16, ptr %39, align 2, !tbaa !82
  %41 = zext i16 %40 to i32
  %42 = add nuw nsw i32 %35, %32
  %43 = add nuw nsw i32 %42, %38
  %44 = sub nsw i32 %41, %43
  %45 = getelementptr inbounds nuw i8, ptr %21, i64 %29
  %46 = load i16, ptr %45, align 2, !tbaa !82
  %47 = zext i16 %46 to i32
  %48 = add nsw i32 %44, %47
  %49 = getelementptr inbounds nuw i8, ptr %23, i64 %29
  %50 = load i16, ptr %49, align 2, !tbaa !82
  %51 = zext i16 %50 to i32
  %52 = add nsw i32 %48, %51
  %53 = sitofp i32 %52 to float
  %54 = getelementptr inbounds nuw i8, ptr %25, i64 %29
  %55 = load i16, ptr %54, align 2, !tbaa !82
  %56 = zext i16 %55 to i32
  %57 = getelementptr inbounds nuw i8, ptr %27, i64 %29
  %58 = load i16, ptr %57, align 2, !tbaa !82
  %59 = zext i16 %58 to i32
  %60 = add nuw nsw i32 %32, %41
  %61 = add nuw nsw i32 %38, %51
  %62 = add nuw nsw i32 %60, %56
  %63 = sub nsw i32 %61, %62
  %64 = add nsw i32 %63, %59
  %65 = sitofp i32 %64 to float
  %66 = fmul nsz float %65, %65
  %67 = tail call nsz float @llvm.fmuladd.f32(float %53, float %53, float %66)
  %68 = tail call nsz float @llvm.sqrt.f32(float %67)
  %69 = tail call nsz float @llvm.fmuladd.f32(float %68, float %2, float %3)
  %70 = fptosi float %69 to i32
  %71 = icmp slt i32 %70, 0
  %..i = tail call i32 @llvm.smin.i32(i32 %6, i32 %70)
  %72 = trunc i32 %..i to i16
  %73 = select i1 %71, i16 0, i16 %72
  %74 = getelementptr inbounds nuw i16, ptr %0, i64 %indvars.iv
  store i16 %73, ptr %74, align 2, !tbaa !103
  %indvars.iv.next = add nuw nsw i64 %indvars.iv, 1
  %exitcond.not = icmp eq i64 %indvars.iv.next, %wide.trip.count
  br i1 %exitcond.not, label %._crit_edge, label %28, !llvm.loop !116

._crit_edge:                                      ; preds = %28, %11
  ret void
}